target datalayout = "e-m:e-p270:32:32-p271:32:32-p272:64:64-i64:64-i128:128-f80:128-n8:16:32:64-S128"
target triple = "x86_64-pc-linux-gnu"

%class.LIR_Opr = type { i64 }
%class.LIRAccess = type { ptr, i64, %class.LIRAddressOpr, %class.LIRAddressOpr, i8, %class.LIR_Opr, ptr, ptr }
%class.LIRAddressOpr = type { ptr, %class.LIR_Opr }

; Function Attrs: mustprogress nounwind uwtable
define linkonce_odr hidden noundef nonnull align 8 dereferenceable(40) ptr @_ZNK13LIRAddressOpr4itemEv(ptr noundef nonnull align 8 dereferenceable(16) %0) #1 comdat align 2 {
  %2 = alloca ptr, align 8
  store ptr %0, ptr %2, align 8
  %3 = load ptr, ptr %2, align 8
  %4 = getelementptr inbounds %class.LIRAddressOpr, ptr %3, i32 0, i32 0
  %5 = load ptr, ptr %4, align 8
  ret ptr %5
}

; Function Attrs: mustprogress nounwind uwtable
define linkonce_odr hidden void @_ZN9LIRAccess11load_offsetEv(ptr noundef nonnull align 8 dereferenceable(80) %0) #1 comdat align 2 {
  %2 = alloca ptr, align 8
  store ptr %0, ptr %2, align 8
  %3 = load ptr, ptr %2, align 8
  %4 = getelementptr inbounds %class.LIRAccess, ptr %3, i32 0, i32 3
  %5 = call noundef nonnull align 8 dereferenceable(40) ptr @_ZNK13LIRAddressOpr4itemEv(ptr noundef nonnull align 8 dereferenceable(16) %4)
  call void @_ZN7LIRItem16load_nonconstantEv(ptr noundef nonnull align 8 dereferenceable(40) %5)
  ret void
}

; Function Attrs: mustprogress nounwind uwtable
define linkonce_odr hidden void @_ZN9LIRAccess9load_baseEv(ptr noundef nonnull align 8 dereferenceable(80) %0) #1 comdat align 2 {
  %2 = alloca ptr, align 8
  store ptr %0, ptr %2, align 8
  %3 = load ptr, ptr %2, align 8
  %4 = getelementptr inbounds %class.LIRAccess, ptr %3, i32 0, i32 2
  %5 = call noundef nonnull align 8 dereferenceable(40) ptr @_ZNK13LIRAddressOpr4itemEv(ptr noundef nonnull align 8 dereferenceable(16) %4)
  call void @_ZN7LIRItem9load_itemEv(ptr noundef nonnull align 8 dereferenceable(40) %5)
  ret void
}

; Function Attrs: mustprogress nounwind uwtable
define linkonce_odr hidden void @_ZN9LIRAccess17set_resolved_addrE7LIR_Opr(ptr noundef nonnull align 8 dereferenceable(80) %0, i64 %1) #1 comdat align 2 {
  %3 = alloca %class.LIR_Opr, align 8
  %4 = alloca ptr, align 8
  %5 = getelementptr inbounds %class.LIR_Opr, ptr %3, i32 0, i32 0
  store i64 %1, ptr %5, align 8
  store ptr %0, ptr %4, align 8
  %6 = load ptr, ptr %4, align 8
  %7 = getelementptr inbounds %class.LIRAccess, ptr %6, i32 0, i32 5
  call void @llvm.memcpy.p0.p0.i64(ptr align 8 %7, ptr align 8 %3, i64 8, i1 false)
  ret void
}

; Function Attrs: mustprogress nounwind uwtable
define linkonce_odr hidden void @_ZN9LIRAccess12load_addressEv(ptr noundef nonnull align 8 dereferenceable(80) %0) #1 comdat align 2 {
  %2 = alloca ptr, align 8
  store ptr %0, ptr %2, align 8
  %3 = load ptr, ptr %2, align 8
  call void @_ZN9LIRAccess9load_baseEv(ptr noundef nonnull align 8 dereferenceable(80) %3)
  call void @_ZN9LIRAccess11load_offsetEv(ptr noundef nonnull align 8 dereferenceable(80) %3)
  ret void
}

; Function Attrs: mustprogress nounwind uwtable
define linkonce_odr hidden noundef i64 @_ZNK9LIRAccess10decoratorsEv(ptr noundef nonnull align 8 dereferenceable(80) %0) #1 comdat align 2 {
  %2 = alloca ptr, align 8
  store ptr %0, ptr %2, align 8
  %3 = load ptr, ptr %2, align 8
  %4 = getelementptr inbounds %class.LIRAccess, ptr %3, i32 0, i32 1
  %5 = load i64, ptr %4, align 8
  ret i64 %5
}

; Function Attrs: mustprogress nounwind uwtable
define hidden i64 @_ZN12BarrierSetC117atomic_cmpxchg_atER9LIRAccessR7LIRItemS3_(ptr noundef nonnull align 8 dereferenceable(8) %0, ptr noundef nonnull align 8 dereferenceable(80) %1, ptr noundef nonnull align 8 dereferenceable(40) %2, ptr noundef nonnull align 8 dereferenceable(40) %3) unnamed_addr #1 align 2 {
  %5 = alloca %class.LIR_Opr, align 8
  %6 = alloca ptr, align 8
  %7 = alloca ptr, align 8
  %8 = alloca ptr, align 8
  %9 = alloca ptr, align 8
  %10 = alloca i64, align 8
  %11 = alloca i8, align 1
  %12 = alloca %class.LIR_Opr, align 8
  %13 = alloca %class.LIR_Opr, align 8
  store ptr %0, ptr %6, align 8
  store ptr %1, ptr %7, align 8
  store ptr %2, ptr %8, align 8
  store ptr %3, ptr %9, align 8
  %14 = load ptr, ptr %6, align 8
  %15 = load ptr, ptr %7, align 8
  %16 = call noundef i64 @_ZNK9LIRAccess10decoratorsEv(ptr noundef nonnull align 8 dereferenceable(80) %15)
  store i64 %16, ptr %10, align 8
  %17 = load i64, ptr %10, align 8
  %18 = and i64 %17, 262144
  %19 = icmp ne i64 %18, 0
  %20 = zext i1 %19 to i8
  store i8 %20, ptr %11, align 1
  %21 = load ptr, ptr %7, align 8
  call void @_ZN9LIRAccess12load_addressEv(ptr noundef nonnull align 8 dereferenceable(80) %21)
  %22 = load ptr, ptr %7, align 8
  %23 = load ptr, ptr %14, align 8
  %24 = getelementptr inbounds ptr, ptr %23, i64 0
  %25 = load ptr, ptr %24, align 8
  %26 = call i64 %25(ptr noundef nonnull align 8 dereferenceable(8) %14, ptr noundef nonnull align 8 dereferenceable(80) %22, i1 noundef zeroext true)
  %27 = getelementptr inbounds %class.LIR_Opr, ptr %12, i32 0, i32 0
  store i64 %26, ptr %27, align 8
  %28 = load ptr, ptr %7, align 8
  call void @llvm.memcpy.p0.p0.i64(ptr align 8 %13, ptr align 8 %12, i64 8, i1 false)
  %29 = getelementptr inbounds %class.LIR_Opr, ptr %13, i32 0, i32 0
  %30 = load i64, ptr %29, align 8
  call void @_ZN9LIRAccess17set_resolved_addrE7LIR_Opr(ptr noundef nonnull align 8 dereferenceable(80) %28, i64 %30)
  %31 = load ptr, ptr %7, align 8
  %32 = load ptr, ptr %8, align 8
  %33 = load ptr, ptr %9, align 8
  %34 = load ptr, ptr %14, align 8
  %35 = getelementptr inbounds ptr, ptr %34, i64 4
  %36 = load ptr, ptr %35, align 8
  %37 = call i64 %36(ptr noundef nonnull align 8 dereferenceable(8) %14, ptr noundef nonnull align 8 dereferenceable(80) %31, ptr noundef nonnull align 8 dereferenceable(40) %32, ptr noundef nonnull align 8 dereferenceable(40) %33)
  %38 = getelementptr inbounds %class.LIR_Opr, ptr %5, i32 0, i32 0
  store i64 %37, ptr %38, align 8
  %39 = getelementptr inbounds %class.LIR_Opr, ptr %5, i32 0, i32 0
  %40 = load i64, ptr %39, align 8
  ret i64 %40
}