; Function Attrs: mustprogress nounwind uwtable
define hidden i64 @_ZN12BarrierSetC117atomic_cmpxchg_atER9LIRAccessR7LIRItemS3_(ptr noundef nonnull align 8 dereferenceable(8) %0, ptr noundef nonnull align 8 dereferenceable(80) %1, ptr noundef nonnull align 8 dereferenceable(40) %2, ptr noundef nonnull align 8 dereferenceable(40) %3) unnamed_addr #0 align 2 {
  %5 = getelementptr inbounds i8, ptr %1, i64 16
  %6 = load ptr, ptr %5, align 8
  tail call void @_ZN7LIRItem9load_itemEv(ptr noundef nonnull align 8 dereferenceable(40) %6) #5
  %7 = getelementptr inbounds i8, ptr %1, i64 32
  %8 = load ptr, ptr %7, align 8
  tail call void @_ZN7LIRItem16load_nonconstantEv(ptr noundef nonnull align 8 dereferenceable(40) %8) #5
  %9 = load ptr, ptr %0, align 8
  %10 = load ptr, ptr %9, align 8
  %11 = tail call i64 %10(ptr noundef nonnull align 8 dereferenceable(8) %0, ptr noundef nonnull align 8 dereferenceable(80) %1, i1 noundef zeroext true) #5
  %12 = getelementptr inbounds i8, ptr %1, i64 56
  store i64 %11, ptr %12, align 8
  %13 = load ptr, ptr %0, align 8
  %14 = getelementptr inbounds i8, ptr %13, i64 32
  %15 = load ptr, ptr %14, align 8
  %16 = tail call i64 %15(ptr noundef nonnull align 8 dereferenceable(8) %0, ptr noundef nonnull align 8 dereferenceable(80) %1, ptr noundef nonnull align 8 dereferenceable(40) %2, ptr noundef nonnull align 8 dereferenceable(40) %3) #5
  ret i64 %16
}